target datalayout = "e-m:e-p270:32:32-p271:32:32-p272:64:64-i64:64-i128:128-f80:128-n8:16:32:64-S128"
target triple = "x86_64-pc-linux-gnu"

%struct.SDL_HIDAPI_Device = type { ptr, ptr, ptr, ptr, i16, i16, i16, ptr, %struct.SDL_GUID, i32, i32, i32, i32, i16, i16, i8, i32, i32, i32, ptr, ptr, ptr, ptr, %struct.SDL_AtomicInt, i32, ptr, i8, i8, i8, ptr, i32, ptr, ptr }
%struct.SDL_GUID = type { [16 x i8] }
%struct.SDL_AtomicInt = type { i32 }
%struct.SDL_DriverGameCube_Context = type { i8, [4 x i32], [4 x i8], [24 x i8], [24 x i8], [4 x i8], [5 x i8], i8, i8 }
%struct.SDL_Joystick = type { i32, ptr, ptr, ptr, %struct.SDL_GUID, i16, i64, i8, i8, i32, ptr, i32, ptr, i32, ptr, i32, ptr, i32, ptr, i32, i32, ptr, i16, i16, i64, i64, i16, i16, i64, i64, i8, i8, i8, i64, i8, i32, i32, i32, i8, i32, ptr, i32, ptr, [3 x [3 x float]], i64, ptr, ptr, i32, i32, ptr }

@.str.5 = private unnamed_addr constant [32 x i8] c"That operation is not supported\00", align 1
@.str.6 = private unnamed_addr constant [61 x i8] c"Nintendo GameCube WaveBird controllers do not support rumble\00", align 1
@.str.7 = private unnamed_addr constant [43 x i8] c"Second USB cable for WUP-028 not connected\00", align 1
@.str.8 = private unnamed_addr constant [23 x i8] c"Couldn't find joystick\00", align 1

; Function Attrs: nounwind uwtable
define internal zeroext i1 @HIDAPI_DriverGameCube_RumbleJoystick(ptr noundef %0, ptr noundef %1, i16 noundef zeroext %2, i16 noundef zeroext %3) #0 {
  %5 = alloca i1, align 1
  %6 = alloca ptr, align 8
  %7 = alloca ptr, align 8
  %8 = alloca i16, align 2
  %9 = alloca i16, align 2
  %10 = alloca ptr, align 8
  %11 = alloca i8, align 1
  %12 = alloca i8, align 1
  %13 = alloca i32, align 4
  store ptr %0, ptr %6, align 8
  store ptr %1, ptr %7, align 8
  store i16 %2, ptr %8, align 2
  store i16 %3, ptr %9, align 2
  call void @llvm.lifetime.start.p0(i64 8, ptr %10) #5
  %14 = load ptr, ptr %6, align 8
  %15 = getelementptr inbounds nuw %struct.SDL_HIDAPI_Device, ptr %14, i32 0, i32 20
  %16 = load ptr, ptr %15, align 8
  store ptr %16, ptr %10, align 8
  call void @llvm.lifetime.start.p0(i64 1, ptr %11) #5
  call void @llvm.lifetime.start.p0(i64 1, ptr %12) #5
  call void @SDL_AssertJoysticksLocked()
  %17 = load ptr, ptr %10, align 8
  %18 = getelementptr inbounds nuw %struct.SDL_DriverGameCube_Context, ptr %17, i32 0, i32 0
  %19 = load i8, ptr %18, align 4, !range !3, !noundef !4
  %20 = trunc i8 %19 to i1
  br i1 %20, label %21, label %23

21:                                               ; preds = %4
  %22 = call zeroext i1 (ptr, ...) @SDL_SetError_REAL(ptr noundef @.str.5)
  store i1 %22, ptr %5, align 1
  store i32 1, ptr %13, align 4
  br label %130

23:                                               ; preds = %4
  store i8 0, ptr %11, align 1
  br label %24

24:                                               ; preds = %123, %23
  %25 = load i8, ptr %11, align 1
  %26 = zext i8 %25 to i32
  %27 = icmp slt i32 %26, 4
  br i1 %27, label %28, label %128

28:                                               ; preds = %24
  %29 = load ptr, ptr %7, align 8
  %30 = getelementptr inbounds nuw %struct.SDL_Joystick, ptr %29, i32 0, i32 0
  %31 = load i32, ptr %30, align 8
  %32 = load ptr, ptr %10, align 8
  %33 = getelementptr inbounds nuw %struct.SDL_DriverGameCube_Context, ptr %32, i32 0, i32 1
  %34 = load i8, ptr %11, align 1
  %35 = zext i8 %34 to i64
  %36 = getelementptr inbounds nuw [4 x i32], ptr %33, i64 0, i64 %35
  %37 = load i32, ptr %36, align 4
  %38 = icmp eq i32 %31, %37
  br i1 %38, label %39, label %122

39:                                               ; preds = %28
  %40 = load ptr, ptr %10, align 8
  %41 = getelementptr inbounds nuw %struct.SDL_DriverGameCube_Context, ptr %40, i32 0, i32 2
  %42 = load i8, ptr %11, align 1
  %43 = zext i8 %42 to i64
  %44 = getelementptr inbounds nuw [4 x i8], ptr %41, i64 0, i64 %43
  %45 = load i8, ptr %44, align 1
  %46 = icmp ne i8 %45, 0
  br i1 %46, label %47, label %49

47:                                               ; preds = %39
  %48 = call zeroext i1 (ptr, ...) @SDL_SetError_REAL(ptr noundef @.str.6)
  store i1 %48, ptr %5, align 1
  store i32 1, ptr %13, align 4
  br label %130

49:                                               ; preds = %39
  %50 = load ptr, ptr %10, align 8
  %51 = getelementptr inbounds nuw %struct.SDL_DriverGameCube_Context, ptr %50, i32 0, i32 5
  %52 = load i8, ptr %11, align 1
  %53 = zext i8 %52 to i64
  %54 = getelementptr inbounds nuw [4 x i8], ptr %51, i64 0, i64 %53
  %55 = load i8, ptr %54, align 1
  %56 = icmp ne i8 %55, 0
  br i1 %56, label %59, label %57

57:                                               ; preds = %49
  %58 = call zeroext i1 (ptr, ...) @SDL_SetError_REAL(ptr noundef @.str.7)
  store i1 %58, ptr %5, align 1
  store i32 1, ptr %13, align 4
  br label %130

59:                                               ; preds = %49
  %60 = load ptr, ptr %10, align 8
  %61 = getelementptr inbounds nuw %struct.SDL_DriverGameCube_Context, ptr %60, i32 0, i32 8
  %62 = load i8, ptr %61, align 2, !range !3, !noundef !4
  %63 = trunc i8 %62 to i1
  br i1 %63, label %64, label %85

64:                                               ; preds = %59
  %65 = load i16, ptr %8, align 2
  %66 = zext i16 %65 to i32
  %67 = icmp eq i32 %66, 0
  br i1 %67, label %68, label %73

68:                                               ; preds = %64
  %69 = load i16, ptr %9, align 2
  %70 = zext i16 %69 to i32
  %71 = icmp sgt i32 %70, 0
  br i1 %71, label %72, label %73

72:                                               ; preds = %68
  store i8 0, ptr %12, align 1
  br label %84

73:                                               ; preds = %68, %64
  %74 = load i16, ptr %8, align 2
  %75 = zext i16 %74 to i32
  %76 = icmp eq i32 %75, 0
  br i1 %76, label %77, label %82

77:                                               ; preds = %73
  %78 = load i16, ptr %9, align 2
  %79 = zext i16 %78 to i32
  %80 = icmp eq i32 %79, 0
  br i1 %80, label %81, label %82

81:                                               ; preds = %77
  store i8 2, ptr %12, align 1
  br label %83

82:                                               ; preds = %77, %73
  store i8 1, ptr %12, align 1
  br label %83

83:                                               ; preds = %82, %81
  br label %84

84:                                               ; preds = %83, %72
  br label %97

85:                                               ; preds = %59
  %86 = load i16, ptr %8, align 2
  %87 = zext i16 %86 to i32
  %88 = icmp sgt i32 %87, 0
  br i1 %88, label %93, label %89

89:                                               ; preds = %85
  %90 = load i16, ptr %9, align 2
  %91 = zext i16 %90 to i32
  %92 = icmp sgt i32 %91, 0
  br label %93

93:                                               ; preds = %89, %85
  %94 = phi i1 [ true, %85 ], [ %92, %89 ]
  %95 = zext i1 %94 to i32
  %96 = trunc i32 %95 to i8
  store i8 %96, ptr %12, align 1
  br label %97

97:                                               ; preds = %93, %84
  %98 = load i8, ptr %12, align 1
  %99 = zext i8 %98 to i32
  %100 = load ptr, ptr %10, align 8
  %101 = getelementptr inbounds nuw %struct.SDL_DriverGameCube_Context, ptr %100, i32 0, i32 6
  %102 = load i8, ptr %11, align 1
  %103 = zext i8 %102 to i32
  %104 = add nsw i32 %103, 1
  %105 = sext i32 %104 to i64
  %106 = getelementptr inbounds [5 x i8], ptr %101, i64 0, i64 %105
  %107 = load i8, ptr %106, align 1
  %108 = zext i8 %107 to i32
  %109 = icmp ne i32 %99, %108
  br i1 %109, label %110, label %121

110:                                              ; preds = %97
  %111 = load i8, ptr %12, align 1
  %112 = load ptr, ptr %10, align 8
  %113 = getelementptr inbounds nuw %struct.SDL_DriverGameCube_Context, ptr %112, i32 0, i32 6
  %114 = load i8, ptr %11, align 1
  %115 = zext i8 %114 to i32
  %116 = add nsw i32 %115, 1
  %117 = sext i32 %116 to i64
  %118 = getelementptr inbounds [5 x i8], ptr %113, i64 0, i64 %117
  store i8 %111, ptr %118, align 1
  %119 = load ptr, ptr %10, align 8
  %120 = getelementptr inbounds nuw %struct.SDL_DriverGameCube_Context, ptr %119, i32 0, i32 7
  store i8 1, ptr %120, align 1
  br label %121

121:                                              ; preds = %110, %97
  store i1 true, ptr %5, align 1
  store i32 1, ptr %13, align 4
  br label %130

122:                                              ; preds = %28
  br label %123

123:                                              ; preds = %122
  %124 = load i8, ptr %11, align 1
  %125 = zext i8 %124 to i32
  %126 = add nsw i32 %125, 1
  %127 = trunc i32 %126 to i8
  store i8 %127, ptr %11, align 1
  br label %24, !llvm.loop !12

128:                                              ; preds = %24
  %129 = call zeroext i1 (ptr, ...) @SDL_SetError_REAL(ptr noundef @.str.8)
  store i1 %129, ptr %5, align 1
  store i32 1, ptr %13, align 4
  br label %130

130:                                              ; preds = %128, %121, %57, %47, %21
  call void @llvm.lifetime.end.p0(i64 1, ptr %12) #5
  call void @llvm.lifetime.end.p0(i64 1, ptr %11) #5
  call void @llvm.lifetime.end.p0(i64 8, ptr %10) #5
  %131 = load i1, ptr %5, align 1
  ret i1 %131
}