; Function Attrs: nounwind uwtable
define internal zeroext i1 @HIDAPI_DriverGameCube_RumbleJoystick(ptr noundef readonly captures(none) %0, ptr noundef readonly captures(none) %1, i16 noundef zeroext %2, i16 noundef zeroext %3) #0 {
  %5 = getelementptr inbounds nuw i8, ptr %0, i64 112
  %6 = load ptr, ptr %5, align 8
  tail call void @SDL_AssertJoysticksLocked() #7
  %7 = load i8, ptr %6, align 4, !range !3, !noundef !9
  %8 = trunc nuw i8 %7 to i1
  br i1 %8, label %11, label %.preheader

.preheader:                                       ; preds = %4
  %9 = load i32, ptr %1, align 8
  %10 = getelementptr inbounds nuw i8, ptr %6, i64 4
  br label %13

11:                                               ; preds = %4
  %12 = tail call zeroext i1 (ptr, ...) @SDL_SetError_REAL(ptr noundef nonnull @.str.5) #7
  br label %52

13:                                               ; preds = %.preheader, %49
  %indvars.iv = phi i64 [ 0, %.preheader ], [ %indvars.iv.next, %49 ]
  %14 = getelementptr inbounds nuw [4 x i32], ptr %10, i64 0, i64 %indvars.iv
  %15 = load i32, ptr %14, align 4
  %16 = icmp eq i32 %9, %15
  br i1 %16, label %17, label %49

17:                                               ; preds = %13
  %18 = getelementptr inbounds nuw i8, ptr %6, i64 20
  %19 = getelementptr inbounds nuw [4 x i8], ptr %18, i64 0, i64 %indvars.iv
  %20 = load i8, ptr %19, align 1
  %.not = icmp eq i8 %20, 0
  br i1 %.not, label %23, label %21

21:                                               ; preds = %17
  %22 = tail call zeroext i1 (ptr, ...) @SDL_SetError_REAL(ptr noundef nonnull @.str.6) #7
  br label %52

23:                                               ; preds = %17
  %24 = getelementptr inbounds nuw i8, ptr %6, i64 72
  %25 = getelementptr inbounds nuw [4 x i8], ptr %24, i64 0, i64 %indvars.iv
  %26 = load i8, ptr %25, align 1
  %.not33 = icmp eq i8 %26, 0
  br i1 %.not33, label %27, label %29

27:                                               ; preds = %23
  %28 = tail call zeroext i1 (ptr, ...) @SDL_SetError_REAL(ptr noundef nonnull @.str.7) #7
  br label %52

29:                                               ; preds = %23
  %30 = getelementptr inbounds nuw i8, ptr %6, i64 82
  %31 = load i8, ptr %30, align 2, !range !3, !noundef !9
  %32 = trunc nuw i8 %31 to i1
  br i1 %32, label %33, label %38

33:                                               ; preds = %29
  %34 = icmp eq i16 %2, 0
  %35 = icmp ne i16 %3, 0
  %or.cond = and i1 %34, %35
  br i1 %or.cond, label %42, label %36

36:                                               ; preds = %33
  %37 = or i16 %3, %2
  %or.cond5 = icmp eq i16 %37, 0
  %. = select i1 %or.cond5, i8 2, i8 1
  br label %42

38:                                               ; preds = %29
  %39 = or i16 %3, %2
  %40 = icmp ne i16 %39, 0
  %41 = zext i1 %40 to i8
  br label %42

42:                                               ; preds = %36, %33, %38
  %.0 = phi i8 [ %41, %38 ], [ 0, %33 ], [ %., %36 ]
  %43 = getelementptr inbounds nuw i8, ptr %6, i64 76
  %narrow = add nuw i64 %indvars.iv, 1
  %44 = and i64 %narrow, 255
  %45 = getelementptr inbounds nuw [5 x i8], ptr %43, i64 0, i64 %44
  %46 = load i8, ptr %45, align 1
  %.not34 = icmp eq i8 %.0, %46
  br i1 %.not34, label %52, label %47

47:                                               ; preds = %42
  store i8 %.0, ptr %45, align 1
  %48 = getelementptr inbounds nuw i8, ptr %6, i64 81
  store i8 1, ptr %48, align 1
  br label %52

49:                                               ; preds = %13
  %indvars.iv.next = add nuw nsw i64 %indvars.iv, 1
  %exitcond.not = icmp eq i64 %indvars.iv.next, 4
  br i1 %exitcond.not, label %50, label %13, !llvm.loop !13

50:                                               ; preds = %49
  %51 = tail call zeroext i1 (ptr, ...) @SDL_SetError_REAL(ptr noundef nonnull @.str.8) #7
  br label %52

52:                                               ; preds = %42, %47, %50, %27, %21, %11
  %.031 = phi i1 [ %12, %11 ], [ %22, %21 ], [ %28, %27 ], [ %51, %50 ], [ true, %47 ], [ true, %42 ]
  ret i1 %.031
}